Certificate:
    Data:
        Version: 3 (0x2)
        Serial Number: 1327769504 (0x4f2427a0)
        Signature Algorithm: sha1WithRSAEncryption
        Issuer: C=Unknown, ST=Unknown, L=Unknown, O=Unknown, OU=Unknown, CN=picasso
        Validity
            Not Before: Jan 28 16:51:44 2012 GMT
            Not After : Apr 27 16:51:44 2012 GMT
        Subject: C=Unknown, ST=Unknown, L=Unknown, O=Unknown, OU=Unknown, CN=picasso
        Subject Public Key Info:
            Public Key Algorithm: rsaEncryption
                Public-Key: (1024 bit)
                Modulus:
                    00:b4:c9:4d:cf:6f:30:6c:f6:93:9c:a4:81:bf:0e:
                    3c:0c:10:b8:82:e7:66:80:12:0f:0a:cd:21:d6:0b:
                    02:f5:90:ab:50:49:18:a3:55:36:9e:6e:d3:ee:48:
                    6b:c4:69:ea:cd:2b:0c:d6:c3:32:7a:2a:84:ca:2c:
                    ce:32:f1:9c:e5:cb:e3:da:47:b3:b9:7f:22:d9:94:
                    b7:6c:00:ea:26:48:c3:e6:ff:79:17:0f:4f:d9:9c:
                    03:6b:2d:4f:e4:33:c8:1f:69:ca:75:5c:d5:cc:d5:
                    32:9b:97:5a:78:68:67:40:87:0f:f8:62:12:bb:cf:
                    39:f3:b1:28:75:49:8f:dd:2b
                Exponent: 65537 (0x10001)
    Signature Algorithm: sha1WithRSAEncryption
        14:05:e7:08:4f:7e:a9:ca:a5:63:a2:11:cc:83:2a:c4:cc:df:
        b9:21:f5:e9:b1:a0:e7:b3:60:6a:f2:e2:4c:bd:8f:40:32:67:
        87:5f:47:7e:18:f4:e6:a6:27:09:73:fe:27:90:bd:cd:f4:35:
        20:f7:9d:05:73:bb:22:3e:a0:3b:bd:53:6f:43:36:38:21:3b:
        f0:7a:6f:dc:95:dd:fb:6f:ac:0f:c5:8f:d3:aa:a7:b5:ad:50:
        1b:5d:e3:47:80:d3:2c:14:91:06:15:29:03:3d:0d:fe:51:2e:
        67:18:4d:30:ef:de:f1:a3:d4:67:c4:bb:0d:1f:ad:af:18:ea:
        03:64
-----BEGIN CERTIFICATE-----
MIICTzCCAbigAwIBAgIETyQnoDANBgkqhkiG9w0BAQUFADBsMRAwDgYDVQQGEwdV
bmtub3duMRAwDgYDVQQIEwdVbmtub3duMRAwDgYDVQQHEwdVbmtub3duMRAwDgYD
VQQKEwdVbmtub3duMRAwDgYDVQQLEwdVbmtub3duMRAwDgYDVQQDEwdwaWNhc3Nv
MB4XDTEyMDEyODE2NTE0NFoXDTEyMDQyNzE2NTE0NFowbDEQMA4GA1UEBhMHVW5r
bm93bjEQMA4GA1UECBMHVW5rbm93bjEQMA4GA1UEBxMHVW5rbm93bjEQMA4GA1UE
ChMHVW5rbm93bjEQMA4GA1UECxMHVW5rbm93bjEQMA4GA1UEAxMHcGljYXNzbzCB
nzANBgkqhkiG9w0BAQEFAAOBjQAwgYkCgYEAtMlNz28wbPaTnKSBvw48DBC4gudm
gBIPCs0h1gsC9ZCrUEkYo1U2nm7T7khrxGnqzSsM1sMyeiqEyizOMvGc5cvj2kez
uX8i2ZS3bADqJkjD5v95Fw9P2ZwDay1P5DPIH2nKdVzVzNUym5daeGhnQIcP+GIS
u88587EodUmP3SsCAwEAATANBgkqhkiG9w0BAQUFAAOBgQAUBecIT36pyqVjohHM
gyrEzN+5IfXpsaDns2Bq8uJMvY9AMmeHX0d+GPTmpicJc/4nkL3N9DUg950Fc7si
PqA7vVNvQzY4ITvwem/cld37b6wPxY/Tqqe1rVAbXeNHgNMsFJEGFSkDPQ3+US5n
GE0w797xo9RnxLsNH62vGOoDZA==
-----END CERTIFICATE-----
